target datalayout = "e-m:e-p270:32:32-p271:32:32-p272:64:64-i64:64-i128:128-f80:128-n8:16:32:64-S128"
target triple = "x86_64-pc-linux-gnu"

%struct._priv_exr_context_t = type { i8, i8, i8, i8, i8, i8, i8, i8, %struct.exr_attr_string_t, %struct.exr_attr_string_t, ptr, ptr, ptr, ptr, ptr, ptr, ptr, ptr, i32, i32, i32, i32, i32, float, ptr, ptr, ptr, i64, ptr, ptr, i64, i32, i32, i32, i32, %struct._priv_exr_part_t, ptr, ptr, %struct.exr_attribute_list, %union.pthread_mutex_t, i8, i8, [2 x i8], i32 }
%struct.exr_attr_string_t = type { i32, i32, ptr }
%struct._priv_exr_part_t = type { i32, i32, %struct.exr_attribute_list, ptr, ptr, ptr, ptr, ptr, ptr, ptr, ptr, ptr, ptr, ptr, ptr, ptr, ptr, %struct.exr_attr_box2i_t, %struct.exr_attr_box2i_t, i32, i32, i32, float, i32, i32, ptr, ptr, ptr, ptr, i64, i16, i16, i32, i64, i64 }
%struct.exr_attr_box2i_t = type { %struct.exr_attr_v2i_t, %struct.exr_attr_v2i_t }
%struct.exr_attr_v2i_t = type { i32, i32 }
%struct.exr_attribute_list = type { i32, i32, ptr, ptr }
%union.pthread_mutex_t = type { %struct.__pthread_mutex_s }
%struct.__pthread_mutex_s = type { i32, i32, i32, i32, i32, i16, i16, %struct.__pthread_internal_list }
%struct.__pthread_internal_list = type { ptr, ptr }

@.str = private unnamed_addr constant [29 x i8] c"Part index (%d) out of range\00", align 1

; Function Attrs: inlinehint nounwind uwtable
define internal void @internal_exr_unlock(ptr noundef %0) #2 {
  %2 = alloca ptr, align 8
  %3 = alloca ptr, align 8
  store ptr %0, ptr %2, align 8, !tbaa !3
  call void @llvm.lifetime.start.p0(i64 8, ptr %3) #7
  %4 = load ptr, ptr %2, align 8, !tbaa !3
  %5 = ptrtoint ptr %4 to i64
  %6 = inttoptr i64 %5 to ptr
  store ptr %6, ptr %3, align 8, !tbaa !3
  %7 = load ptr, ptr %3, align 8, !tbaa !3
  %8 = getelementptr inbounds nuw %struct._priv_exr_context_t, ptr %7, i32 0, i32 39
  %9 = call i32 @pthread_mutex_unlock(ptr noundef %8) #7
  call void @llvm.lifetime.end.p0(i64 8, ptr %3) #7
  ret void
}

; Function Attrs: inlinehint nounwind uwtable
define internal void @internal_exr_lock(ptr noundef %0) #2 {
  %2 = alloca ptr, align 8
  %3 = alloca ptr, align 8
  store ptr %0, ptr %2, align 8, !tbaa !3
  call void @llvm.lifetime.start.p0(i64 8, ptr %3) #7
  %4 = load ptr, ptr %2, align 8, !tbaa !3
  %5 = ptrtoint ptr %4 to i64
  %6 = inttoptr i64 %5 to ptr
  store ptr %6, ptr %3, align 8, !tbaa !3
  %7 = load ptr, ptr %3, align 8, !tbaa !3
  %8 = getelementptr inbounds nuw %struct._priv_exr_context_t, ptr %7, i32 0, i32 39
  %9 = call i32 @pthread_mutex_lock(ptr noundef %8) #7
  call void @llvm.lifetime.end.p0(i64 8, ptr %3) #7
  ret void
}

; Function Attrs: nounwind uwtable
define i32 @exr_write_deep_tile_chunk(ptr noundef %0, i32 noundef %1, i32 noundef %2, i32 noundef %3, i32 noundef %4, i32 noundef %5, ptr noundef %6, i64 noundef %7, i64 noundef %8, ptr noundef %9, i64 noundef %10) #0 {
  %12 = alloca i32, align 4
  %13 = alloca ptr, align 8
  %14 = alloca i32, align 4
  %15 = alloca i32, align 4
  %16 = alloca i32, align 4
  %17 = alloca i32, align 4
  %18 = alloca i32, align 4
  %19 = alloca ptr, align 8
  %20 = alloca i64, align 8
  %21 = alloca i64, align 8
  %22 = alloca ptr, align 8
  %23 = alloca i64, align 8
  %24 = alloca i32, align 4
  %25 = alloca ptr, align 8
  %26 = alloca i32, align 4
  store ptr %0, ptr %13, align 8, !tbaa !3
  store i32 %1, ptr %14, align 4, !tbaa !8
  store i32 %2, ptr %15, align 4, !tbaa !8
  store i32 %3, ptr %16, align 4, !tbaa !8
  store i32 %4, ptr %17, align 4, !tbaa !8
  store i32 %5, ptr %18, align 4, !tbaa !8
  store ptr %6, ptr %19, align 8, !tbaa !54
  store i64 %7, ptr %20, align 8, !tbaa !33
  store i64 %8, ptr %21, align 8, !tbaa !33
  store ptr %9, ptr %22, align 8, !tbaa !54
  store i64 %10, ptr %23, align 8, !tbaa !33
  call void @llvm.lifetime.start.p0(i64 4, ptr %24) #7
  call void @llvm.lifetime.start.p0(i64 8, ptr %25) #7
  %27 = load ptr, ptr %13, align 8, !tbaa !3
  %28 = icmp ne ptr %27, null
  br i1 %28, label %30, label %29

29:                                               ; preds = %11
  store i32 2, ptr %12, align 4
  store i32 1, ptr %26, align 4
  br label %83

30:                                               ; preds = %11
  %31 = load ptr, ptr %13, align 8, !tbaa !3
  call void @internal_exr_lock(ptr noundef %31)
  %32 = load i32, ptr %14, align 4, !tbaa !8
  %33 = icmp slt i32 %32, 0
  br i1 %33, label %40, label %34

34:                                               ; preds = %30
  %35 = load i32, ptr %14, align 4, !tbaa !8
  %36 = load ptr, ptr %13, align 8, !tbaa !3
  %37 = getelementptr inbounds nuw %struct._priv_exr_context_t, ptr %36, i32 0, i32 34
  %38 = load i32, ptr %37, align 4, !tbaa !27
  %39 = icmp sge i32 %35, %38
  br i1 %39, label %40, label %48

40:                                               ; preds = %34, %30
  %41 = load ptr, ptr %13, align 8, !tbaa !3
  call void @internal_exr_unlock(ptr noundef %41)
  %42 = load ptr, ptr %13, align 8, !tbaa !3
  %43 = getelementptr inbounds nuw %struct._priv_exr_context_t, ptr %42, i32 0, i32 14
  %44 = load ptr, ptr %43, align 8, !tbaa !28
  %45 = load ptr, ptr %13, align 8, !tbaa !3
  %46 = load i32, ptr %14, align 4, !tbaa !8
  %47 = call i32 (ptr, i32, ptr, ...) %44(ptr noundef %45, i32 noundef 4, ptr noundef @.str, i32 noundef %46)
  store i32 %47, ptr %12, align 4
  store i32 1, ptr %26, align 4
  br label %83

48:                                               ; preds = %34
  %49 = load ptr, ptr %13, align 8, !tbaa !3
  %50 = getelementptr inbounds nuw %struct._priv_exr_context_t, ptr %49, i32 0, i32 37
  %51 = load ptr, ptr %50, align 8, !tbaa !29
  %52 = load i32, ptr %14, align 4, !tbaa !8
  %53 = sext i32 %52 to i64
  %54 = getelementptr inbounds ptr, ptr %51, i64 %53
  %55 = load ptr, ptr %54, align 8, !tbaa !30
  store ptr %55, ptr %25, align 8, !tbaa !30
  %56 = load ptr, ptr %25, align 8, !tbaa !30
  %57 = getelementptr inbounds nuw %struct._priv_exr_part_t, ptr %56, i32 0, i32 1
  %58 = load i32, ptr %57, align 4, !tbaa !58
  %59 = icmp eq i32 %58, 1
  br i1 %59, label %60, label %67

60:                                               ; preds = %48
  %61 = load ptr, ptr %13, align 8, !tbaa !3
  call void @internal_exr_unlock(ptr noundef %61)
  %62 = load ptr, ptr %13, align 8, !tbaa !3
  %63 = getelementptr inbounds nuw %struct._priv_exr_context_t, ptr %62, i32 0, i32 12
  %64 = load ptr, ptr %63, align 8, !tbaa !31
  %65 = load ptr, ptr %13, align 8, !tbaa !3
  %66 = call i32 %64(ptr noundef %65, i32 noundef 30)
  store i32 %66, ptr %12, align 4
  store i32 1, ptr %26, align 4
  br label %83

67:                                               ; preds = %48
  %68 = load ptr, ptr %13, align 8, !tbaa !3
  %69 = load i32, ptr %14, align 4, !tbaa !8
  %70 = load ptr, ptr %25, align 8, !tbaa !30
  %71 = load i32, ptr %15, align 4, !tbaa !8
  %72 = load i32, ptr %16, align 4, !tbaa !8
  %73 = load i32, ptr %17, align 4, !tbaa !8
  %74 = load i32, ptr %18, align 4, !tbaa !8
  %75 = load ptr, ptr %19, align 8, !tbaa !54
  %76 = load i64, ptr %20, align 8, !tbaa !33
  %77 = load i64, ptr %21, align 8, !tbaa !33
  %78 = load ptr, ptr %22, align 8, !tbaa !54
  %79 = load i64, ptr %23, align 8, !tbaa !33
  %80 = call i32 @write_tile_chunk(ptr noundef %68, i32 noundef %69, ptr noundef %70, i32 noundef %71, i32 noundef %72, i32 noundef %73, i32 noundef %74, ptr noundef %75, i64 noundef %76, i64 noundef %77, ptr noundef %78, i64 noundef %79)
  store i32 %80, ptr %24, align 4, !tbaa !8
  %81 = load ptr, ptr %13, align 8, !tbaa !3
  call void @internal_exr_unlock(ptr noundef %81)
  %82 = load i32, ptr %24, align 4, !tbaa !8
  store i32 %82, ptr %12, align 4
  store i32 1, ptr %26, align 4
  br label %83

83:                                               ; preds = %67, %60, %40, %29
  call void @llvm.lifetime.end.p0(i64 8, ptr %25) #7
  call void @llvm.lifetime.end.p0(i64 4, ptr %24) #7
  %84 = load i32, ptr %12, align 4
  ret i32 %84
}