; Function Attrs: nounwind uwtable
define i32 @exr_write_deep_tile_chunk(ptr noundef %0, i32 noundef %1, i32 noundef %2, i32 noundef %3, i32 noundef %4, i32 noundef %5, ptr noundef %6, i64 noundef %7, i64 noundef %8, ptr noundef %9, i64 noundef %10) local_unnamed_addr #0 {
  %.not = icmp eq ptr %0, null
  br i1 %.not, label %41, label %12

12:                                               ; preds = %11
  %13 = getelementptr inbounds nuw i8, ptr %0, i64 504
  %14 = tail call i32 @pthread_mutex_lock(ptr noundef nonnull %13) #8
  %15 = icmp slt i32 %1, 0
  br i1 %15, label %19, label %16

16:                                               ; preds = %12
  %17 = getelementptr inbounds nuw i8, ptr %0, i64 196
  %18 = load i32, ptr %17, align 4, !tbaa !22
  %.not31 = icmp slt i32 %1, %18
  br i1 %.not31, label %24, label %19

19:                                               ; preds = %16, %12
  %20 = tail call i32 @pthread_mutex_unlock(ptr noundef nonnull %13) #8
  %21 = getelementptr inbounds nuw i8, ptr %0, i64 72
  %22 = load ptr, ptr %21, align 8, !tbaa !23
  %23 = tail call i32 (ptr, i32, ptr, ...) %22(ptr noundef nonnull %0, i32 noundef 4, ptr noundef nonnull @.str, i32 noundef %1) #8
  br label %41

24:                                               ; preds = %16
  %25 = getelementptr inbounds nuw i8, ptr %0, i64 472
  %26 = load ptr, ptr %25, align 8, !tbaa !25
  %27 = zext nneg i32 %1 to i64
  %28 = getelementptr inbounds nuw ptr, ptr %26, i64 %27
  %29 = load ptr, ptr %28, align 8, !tbaa !26
  %30 = getelementptr inbounds nuw i8, ptr %29, i64 4
  %31 = load i32, ptr %30, align 4, !tbaa !44
  %32 = icmp eq i32 %31, 1
  br i1 %32, label %33, label %38

33:                                               ; preds = %24
  %34 = tail call i32 @pthread_mutex_unlock(ptr noundef nonnull %13) #8
  %35 = getelementptr inbounds nuw i8, ptr %0, i64 56
  %36 = load ptr, ptr %35, align 8, !tbaa !24
  %37 = tail call i32 %36(ptr noundef nonnull %0, i32 noundef 30) #8
  br label %41

38:                                               ; preds = %24
  %39 = tail call fastcc i32 @write_tile_chunk(ptr noundef %0, i32 noundef %1, ptr noundef nonnull %29, i32 noundef %2, i32 noundef %3, i32 noundef %4, i32 noundef %5, ptr noundef %6, i64 noundef %7, i64 noundef %8, ptr noundef %9, i64 noundef %10)
  %40 = tail call i32 @pthread_mutex_unlock(ptr noundef nonnull %13) #8
  br label %41

41:                                               ; preds = %11, %38, %33, %19
  %.0 = phi i32 [ %23, %19 ], [ %37, %33 ], [ %39, %38 ], [ 2, %11 ]
  ret i32 %.0
}